; Function Attrs: nounwind uwtable
define internal fastcc noalias nonnull ptr @_init_l___private_Lean_Meta_Tactic_Simp_BuiltinSimprocs_BitVec_0____regBuiltin_BitVec_reduceSetWidth_x27_declare__284____x40_Lean_Meta_Tactic_Simp_BuiltinSimprocs_BitVec___hyg_5180____closed__3() unnamed_addr #1 {
  %1 = load ptr, ptr @l_BitVec_reduceSetWidth_x27___closed__3, align 8, !tbaa !5
  tail call void @lean_inc_heartbeat() #5
  %2 = tail call noalias ptr @mi_malloc_small(i64 noundef 24) #5
  %3 = icmp eq ptr %2, null
  br i1 %3, label %4, label %lean_alloc_ctor.exit

4:                                                ; preds = %0
  tail call void @lean_internal_panic_out_of_memory() #6
  unreachable

lean_alloc_ctor.exit:                             ; preds = %0
  %5 = getelementptr inbounds nuw i8, ptr %2, i64 4
  store i32 1, ptr %2, align 4, !tbaa !10
  store i32 131096, ptr %5, align 4
  %6 = getelementptr inbounds nuw i8, ptr %2, i64 8
  store ptr %1, ptr %6, align 8, !tbaa !5
  %7 = getelementptr inbounds nuw i8, ptr %2, i64 16
  store ptr inttoptr (i64 9 to ptr), ptr %7, align 8, !tbaa !5
  ret ptr %2
}